(lp0
I40
aI50
aI43
aI100
aI84
aI56
aI46
aI71
aI56
aI142
aI106
aI60
aI126
aI39
aI34
aI74
aI51
aI112
aI46
aI52
aI109
aI172
aI86
aI158
aI126
aI140
aI104
aI113
aI105
aI36
aI84
aI0
aI71
aI36
aI32
aI29
aI48
aI0
aI213
aI102
aI104
aI73
aI80
aI138
aI33
aI110
aI49
aI91
aI0
aI104
aI0
aI159
aI94
aI82
aI81
aI136
aI72
aI222
aI94
aI236
aI160
aI37
aI189
aI197
aI88
aI160
aI180
aI111
aI204
aI82
aI52
aI0
aI67
aI51
aI157
aI46
aI86
aI66
aI81
aI37
aI0
aI91
aI0
aI110
aI63
aI52
aI0
aI0
aI171
aI57
aI69
aI56
aI47
aI67
aI48
aI95
aI78
aI0
aI42
aI73
aI96
aI46
aI70
aI54
aI0
aI125
aI47
aI139
aI49
aI91
aI0
aI0
aI81
aI39
aI68
aI138
aI182
aI126
aI78
aI68
aI107
aI193
aI161
aI127
aI83
aI128
aI48
aI30
aI31
aI55
aI39
aI33
aI63
aI70
aI0
aI0
aI41
aI200
aI99
aI143
aI120
aI138
aI147
aI200
aI87
aI151
aI43
aI121
aI88
aI172
aI130
aI67
aI106
aI155
aI73
aI76
aI29
aI65
aI77
aI96
aI18
aI52
aI35
aI51
aI160
aI123
aI148
aI111
aI87
aI57
aI101
aI131
aI163
aI130
aI105
aI33
aI42
aI106
aI89
aI34
aI64
aI181
aI101
aI79
aI126
aI128
aI158
aI69
aI59
aI135
aI66
aI147
aI61
aI95
aI25
aI91
aI82
aI152
aI65
aI128
aI55
aI42
aI37
aI53
aI76
aI33
aI68
aI45
aI81
aI45
aI81
aI110
aI55
aI44
aI31
aI47
aI24
aI50
aI39
aI56
aI0
aI31
aI66
aI42
aI100
aI40
aI53
aI86
aI98
aI44
aI55
aI100
aI126
aI43
aI75
aI95
aI138
aI37
aI0
aI100
aI48
aI111
aI66
aI18
aI0
aI51
aI59
aI92
aI98
aI192
aI74
aI129
aI145
aI83
aI159
a.