(dp1
S'grand-bereby'
p2
F2823.326551532572
sS'kounahiri'
p3
F400.82828729056354
sS'foungbesso'
p4
F755.61302177541427
sS"m'bengue"
p5
F2463.7495533259362
sS'bonguera'
p6
F449.6955070350524
sS'sago'
p7
F927.92992209603608
sS'beoumi'
p8
F859.45735371403725
sS'taabo'
p9
F593.69319274300256
sS'zuenoula'
p10
F2208.9518023762112
sS'zeo'
p11
F239.67293854535907
sS'kong'
p12
F8912.8419146963079
sS'alepe'
p13
F2765.395354459165
sS'grand-bassam'
p14
F124.98770077282202
sS'gbapleu'
p15
F521.74174197172147
sS'borotou'
p16
F1048.5798937409454
sS'agou'
p17
F413.56697691987216
sS'kouibly'
p18
F782.07996721364555
sS'satama-sokoro'
p19
F773.65449289111939
sS'fronan'
p20
F1442.0826236921278
sS'cechi'
p21
F258.02296726233311
sS'oress-krobou'
p22
F425.85808969060088
sS'tanguelan'
p23
F298.21299130627068
sS'affery'
p24
F644.17647327184636
sS'tienko'
p25
F1407.7423338125725
sS'bouafle'
p26
F2693.5261725242176
sS'yakasse-attobrou'
p27
F1563.147212896597
sS'bondoukou'
p28
F902.6163979995606
sS'dikodougou'
p29
F1976.4595223377728
sS'bazre'
p30
F267.72430379033904
sS'anyama'
p31
F695.0212170097642
sS'yakasse-feyasse'
p32
F703.48179794629516
sS'sakassou'
p33
F1299.035769808683
sS'guiembe'
p34
F502.34561698614812
sS'niofoin'
p35
F1501.4008403604412
sS'tieningboue'
p36
F2311.020877537966
sS'foumbolo'
p37
F2613.4048796770762
sS'blolequin'
p38
F2878.0424672775439
sS'nielle'
p39
F1165.1134186308161
sS'transua'
p40
F771.33261946944697
sS'djebonoua'
p41
F322.32891913232754
sS'abengourou'
p42
F785.84293328069134
sS'guiberoua'
p43
F1352.8839552348195
sS'ouragahio'
p44
F604.57602990588964
sS'boundiali'
p45
F3371.5820761552422
sS'minignan'
p46
F1886.0086937345432
sS'languibonou'
p47
F264.02320575720466
sS'kaniasso'
p48
F663.64977316921534
sS'daoukro'
p49
F1141.4091268591976
sS'bianoua'
p50
F753.19784254257002
sS'bassawa'
p51
F1074.1224913490214
sS'kononfla'
p52
F372.95418794455367
sS'tioroniaradougou'
p53
F317.11621689703537
sS'azaguie'
p54
F328.22496135875554
sS'yamoussoukro'
p55
F1330.7346254473039
sS'iboguhe'
p56
F746.27069067294212
sS'kokumbo'
p57
F473.70647893092234
sS'assinie-mafia'
p58
F135.63624708024133
sS'semien'
p59
F655.93835433726645
sS'napieoledougou'
p60
F278.53906490854456
sS'akoupe'
p61
F1093.6671039152291
sS'dikodougou2'
p62
F1216.3671616022934
sS'bangolo'
p63
F460.40977491744655
sS'samatiguila'
p64
F211.54783632678843
sS'sipilou'
p65
F1103.3651674339171
sS'koumbala'
p66
F1793.2345305738991
sS'vavoua'
p67
F3072.124833271384
sS'gohitafla'
p68
F687.73903814307846
sS'oghlwapo'
p69
F216.90928443947189
sS'man'
p70
F1054.3634374308479
sS'tieme'
p71
F401.03333899040018
sS'gnagbodougnoa'
p72
F448.85286415329477
sS'diabo'
p73
F297.1181014203521
sS'sapli'
p74
F2045.0833319012934
sS'tabou'
p75
F1528.9598751317842
sS'assikoi'
p76
F372.22760314668568
sS'kani'
p77
F1571.8524214758177
sS'kouetinfla'
p78
F185.39163777135641
sS'daloa'
p79
F943.54197030226703
sS'booko'
p80
F1051.1201844780308
sS'grabo'
p81
F3888.6257165091934
sS'bako'
p82
F2489.5545004969526
sS'totrodrou'
p83
F120.35285339156593
sS'ando-kekrenou'
p84
F320.94039357004044
sS'gbeleban'
p85
F238.7285710410892
sS'angoda'
p86
F244.40843076237346
sS'madinani'
p87
F3140.6464723996032
sS'zaibo'
p88
F230.6754811462996
sS'logouale'
p89
F761.02373226421128
sS'agnibilekrou'
p90
F437.39374727510585
sS'tanda'
p91
F1569.983571463684
sS'boguedia'
p92
F217.88279414014428
sS'bin-houye'
p93
F481.95941066579906
sS'dioulatiedougou'
p94
F1611.3403722246312
sS'oume'
p95
F1542.7737021711191
sS'karakoro'
p96
F224.6916940329867
sS"m'bahiakro"
p97
F2071.0745915341481
sS'dania'
p98
F1348.6456054474254
sS'bayota'
p99
F725.24113683689905
sS'gbonne'
p100
F984.59309559988242
sS'tiebissou'
p101
F2328.4855878183666
sS'maffere'
p102
F1454.6174835459531
sS'timbe'
p103
F661.97518664972449
sS'seguelon'
p104
F2207.6367842236964
sS'goumere'
p105
F345.15807077685497
sS'niambezaria'
p106
F843.42817566262988
sS'bonoua'
p107
F802.69886915554071
sS'gueyebly'
p108
F276.8110127792155
sS'rubino'
p109
F775.99406747446915
sS'akoboissue'
p110
F262.66958680173946
sS'marandallah'
p111
F1164.2423194626356
sS'tiobly'
p112
F126.58183517598991
sS'odienne'
p113
F3368.1166481974051
sS'botro'
p114
F705.6834117109961
sS'sangouine'
p115
F896.25001647275349
sS'attiegouakro'
p116
F808.53926163391077
sS'dieouzon'
p117
F763.43951604468646
sS'toumodi'
p118
F827.09636247750518
sS'dualla'
p119
F481.74469624155461
sS'guiglo'
p120
F3220.7420108620613
sS'niakaramandougou'
p121
F4049.1802366444272
sS'saioua'
p122
F958.62010452452944
sS'kolia'
p123
F1697.8489729672197
sS'korhogo'
p124
F1668.4325305251448
sS'bakoubli'
p125
F83.488088395666622
sS'kondrobo'
p126
F776.6456521189491
sS'zoukougbeu'
p127
F1591.3762400216053
sS'zouan-hounien'
p128
F874.59714541960147
sS'ayame'
p129
F1054.3655198447332
sS'sikensi'
p130
F772.33983621407583
sS'nidrou'
p131
F128.95734883076
sS'ouelle'
p132
F1573.8102651799159
sS'etueboue'
p133
F312.61375629008671
sS'bongouanou'
p134
F1568.1640686640837
sS'bouna'
p135
F15454.121136005853
sS'arrah'
p136
F1551.9794634517743
sS"m'batto"
p137
F1219.3656060039134
sS'grand-morie'
p138
F616.51664623215629
sS'ayaou-sran'
p139
F234.7452404628834
sS'kpouebo'
p140
F760.15291694118264
sS"tie-n'diekro"
p141
F554.1313241179264
sS'anoumaba'
p142
F233.23405465637725
sS'assuefry'
p143
F422.33500578881683
sS'bocanda'
p144
F2570.699261960588
sS'sarhala'
p145
F1240.648210228605
sS'massala'
p146
F947.510392526499
sS'ouaninou'
p147
F1130.1454440439986
sS'aniassue'
p148
F756.65006475058806
sS'adiake'
p149
F414.44873404452954
sS'adzope'
p150
F1068.2080271156456
sS'niable'
p151
F523.62713626316327
sS'diegonefla'
p152
F747.66665493436847
sS'issia'
p153
F1491.1730351127526
sS'sirasso'
p154
F1987.8271442073481
sS'biankouma'
p155
F2932.3698608546847
sS'zikisso'
p156
F450.6225090828533
sS'lakota'
p157
F1424.1365344535202
sS'kouto'
p158
F894.57648295111892
sS'tortiya'
p159
F659.06893743781973
sS'agboville'
p160
F1609.5552276776536
sS'bonon'
p161
F1451.484685835263
sS'bonieredougou'
p162
F1339.6513302328271
sS'tengrela'
p163
F1371.9436287878918
sS'dame'
p164
F153.66577846696785
sS'bodokro'
p165
F875.22736162273998
sS'sifie'
p166
F929.20912303904981
sS'bettie'
p167
F849.6275541908127
sS'kouassi kouassikro'
p168
F686.94522543622168
sS'soubre'
p169
F1256.0707702575241
sS'koonan'
p170
F1171.860365918717
sS'dabou'
p171
F1469.0677989624528
sS'zaranou'
p172
F571.90922265801476
sS'danane'
p173
F2444.8425208399808
sS'abidjan'
p174
F586.95528537534017
sS'debete'
p175
F421.68109271099104
sS'guezon'
p176
F738.65326527829461
sS'kongasso'
p177
F643.42878693342311
sS'songon'
p178
F623.30829931752123
sS'ebilassokro'
p179
F445.97358449370432
sS'hire'
p180
F806.97308365719175
sS'sinematiali'
p181
F511.58367226705963
sS'djekanou'
p182
F396.48687350785241
sS'morondo'
p183
F1544.5654187135256
sS'tabagne'
p184
F356.93492007929729
sS'seguela'
p185
F1734.5181911746081
sS'worofla'
p186
F2514.2193170183759
sS'dianra'
p187
F3127.9453839630919
sS'nassian'
p188
F2593.2439149066963
sS'katiola'
p189
F691.94517155513279
sS'tiemelekro'
p190
F955.9176152816591
sS'gboguhe'
p191
F770.67853863662094
sS'touba'
p192
F1241.8614260184961
sS'bingerville'
p193
F257.65899952676421
sS'toumodi-sakassou'
p194
F165.16447348194632
sS'pehe'
p195
F411.06268584989948
sS'taoudi'
p196
F1089.9242860067238
sS'kouassi-datekro'
p197
F1597.3335653614101
sS'gadouan'
p198
F603.2392588134901
sS'seydougou'
p199
F517.03437540195807
sS'amelekia'
p200
F471.39482455090638
sS'okrouyo'
p201
F1109.0805476535822
sS'becedi-brignan'
p202
F183.74135885163534
sS'ettrokro'
p203
F1201.4065163477787
sS'dabakala'
p204
F3812.7656274229694
sS'tiapoum'
p205
F830.86871755948425
sS'san-pedro'
p206
F4057.8621822210412
sS'tai'
p207
F4335.6892003420689
sS'gagnoa'
p208
F1661.9771107848771
sS'brobo'
p209
F1264.3990096407822
sS'mankono'
p210
F1850.0678465252925
sS'bediala'
p211
F1256.3043395497975
sS'aboisso'
p212
F957.97631389316018
sS'gueyo'
p213
F747.97317559231055
sS'koun-fao'
p214
F969.4501464954983
sS'buyo'
p215
F2055.8464601730698
sS'satama-sokoura'
p216
F425.7160157988601
sS'bouake'
p217
F1856.1028028364617
sS'bagohouo'
p218
F470.50267877168142
sS'facobly'
p219
F396.19609392150153
sS'zou'
p220
F707.06417386447379
sS'tankesse'
p221
F1063.1554548561348
sS'yocoboue'
p222
F969.84328206145642
sS'guinteguela'
p223
F1364.6868046225379
sS'divo'
p224
F2781.6535890416062
sS'koro'
p225
F1014.2125014474276
sS'jacqueville'
p226
F702.86208020046854
sS'tehini'
p227
F2998.4161167637262
sS'meagui'
p228
F3491.1021016479831
sS'duffrebo'
p229
F642.79561926047245
sS'prikro'
p230
F1705.7358291143103
sS'sandegue'
p231
F2728.632924882721
sS'ferkessedougou'
p232
F2135.0496283539355
sS'fresco'
p233
F2020.5711284517563
sS'didievi'
p234
F1168.9163626822472
sS'sassandra'
p235
F3217.2013943778793
sS'kanakono'
p236
F517.69132845707406
sS'gbon'
p237
F896.89835175395763
sS'djibrosso'
p238
F1775.2568403148616
sS'doropo'
p239
F876.25488760812641
sS'tiassale'
p240
F2807.4968666255927
sS'koffi-amonkro'
p241
F837.23964080415874
sS'tafire'
p242
F2044.6419673481903
sS'mahapleu'
p243
F825.79382638998288
sS'guitry'
p244
F1499.0374075165605
sS'kassere'
p245
F1004.6087047226722
sS'ouangolodougou'
p246
F1351.6721151944716
sS'duekoue'
p247
F1019.7668160128056
sS'grand-zattry'
p248
F988.57920194080486
sS'diawala'
p249
F1963.0694867069838
sS'grand-lahou'
p250
F2290.1652762029235
sS'sorobango'
p251
F2504.9660642785275
sS'seitifla'
p252
F1952.0445970098572
sS'toulepleu'
p253
F220.98676514334332
sS'goulia'
p254
F2874.5263590498735
sS'dimbokro'
p255
F1533.3744493418008
sS'sinfra'
p256
F787.44771273367678
s.