(dp1
S'grand-bereby'
p2
F35.449275362318843
sS'kounahiri'
p3
F16.876172607879926
sS'foungbesso'
p4
F18.199541284403669
sS"m'bengue"
p5
F45.136000000000003
sS'bonguera'
p6
F27.38095238095238
sS'sago'
p7
F30.154142581888248
sS'beoumi'
p8
F46.293706293706293
sS'taabo'
p9
F57.240356083086056
sS'zuenoula'
p10
F58.798586572438161
sS'zeo'
p11
F81.019417475728162
sS'kong'
p12
F14.180956678700362
sS'alepe'
p13
F423.953216374269
sS'grand-bassam'
p14
F52.560000000000002
sS'gbapleu'
p15
F50.341296928327644
sS'borotou'
p16
F18.199541284403669
sS'agou'
p17
F65.984703632887189
sS'kouibly'
p18
F83.607214428857716
sS'satama-sokoro'
p19
F12.34746639089969
sS'fronan'
p20
F20.254777070063696
sS'cechi'
p21
F76.961038961038966
sS'oress-krobou'
p22
F76.961038961038966
sS'tanguelan'
p23
F72.17647058823529
sS'affery'
p24
F65.984703632887189
sS'tienko'
p25
F11.961165048543689
sS'bouafle'
p26
F59.899497487437188
sS'yakasse-attobrou'
p27
F65.984703632887189
sS'bondoukou'
p28
F25.438247011952193
sS'dikodougou'
p29
F45.136000000000003
sS'bazre'
p30
F103.55029585798816
sS'anyama'
p31
F423.953216374269
sS'yakasse-feyasse'
p32
F59.903846153846153
sS'sakassou'
p33
F46.01063829787234
sS'guiembe'
p34
F45.136000000000003
sS'niofoin'
p35
F45.136000000000003
sS'tieningboue'
p36
F16.876172607879926
sS'foumbolo'
p37
F12.34746639089969
sS'blolequin'
p38
F21.987522281639929
sS'nielle'
p39
F14.180956678700362
sS'transua'
p40
F45.516178736517716
sS'djebonoua'
p41
F140.19148936170214
sS'abengourou'
p42
F59.903846153846153
sS'guiberoua'
p43
F89.111111111111114
sS'ouragahio'
p44
F89.111111111111114
sS'boundiali'
p45
F23.432552248258393
sS'minignan'
p46
F11.961165048543689
sS'languibonou'
p47
F140.19148936170214
sS'kaniasso'
p48
F11.961165048543689
sS'daoukro'
p49
F34.819944598337948
sS'bianoua'
p50
F52.560000000000002
sS'bassawa'
p51
F12.34746639089969
sS'kononfla'
p52
F103.55029585798816
sS'tioroniaradougou'
p53
F45.136000000000003
sS'azaguie'
p54
F76.961038961038966
sS'yamoussoukro'
p55
F67.191558441558442
sS'iboguhe'
p56
F78.969359331476326
sS'kokumbo'
p57
F42.338129496402878
sS'assinie-mafia'
p58
F52.560000000000002
sS'semien'
p59
F83.607214428857716
sS'napieoledougou'
p60
F45.136000000000003
sS'akoupe'
p61
F65.984703632887189
sS'dikodougou2'
p62
F45.136000000000003
sS'bangolo'
p63
F81.019417475728162
sS'samatiguila'
p64
F11.961165048543689
sS'sipilou'
p65
F29.212121212121211
sS'koumbala'
p66
F14.180956678700362
sS'vavoua'
p67
F40
sS'gohitafla'
p68
F58.798586572438161
sS'oghlwapo'
p69
F423.953216374269
sS'man'
p70
F83.607214428857716
sS'tieme'
p71
F11.961165048543689
sS'gnagbodougnoa'
p72
F89.111111111111114
sS'diabo'
p73
F140.19148936170214
sS'sapli'
p74
F25.438247011952193
sS'tabou'
p75
F15.955882352941176
sS'assikoi'
p76
F65.984703632887189
sS'kani'
p77
F15.667259786476869
sS'kouetinfla'
p78
F103.55029585798816
sS'daloa'
p79
F96.458715596330279
sS'booko'
p80
F18.199541284403669
sS'grabo'
p81
F15.955882352941176
sS'bako'
p82
F11.961165048543689
sS'totrodrou'
p83
F83.607214428857716
sS'ando-kekrenou'
p84
F46.293706293706293
sS'gbeleban'
p85
F11.961165048543689
sS'angoda'
p86
F42.338129496402878
sS'madinani'
p87
F11.961165048543689
sS'zaibo'
p88
F96.458715596330279
sS'logouale'
p89
F83.607214428857716
sS'agnibilekrou'
p90
F72.17647058823529
sS'tanda'
p91
F45.516178736517716
sS'boguedia'
p92
F78.969359331476326
sS'bin-houye'
p93
F70.195652173913047
sS'dioulatiedougou'
p94
F11.961165048543689
sS'oume'
p95
F84.916666666666671
sS'karakoro'
p96
F45.136000000000003
sS"m'bahiakro"
p97
F27.38095238095238
sS'dania'
p98
F40
sS'bayota'
p99
F89.111111111111114
sS'gbonne'
p100
F29.212121212121211
sS'tiebissou'
p101
F67.191558441558442
sS'maffere'
p102
F52.560000000000002
sS'timbe'
p103
F20.254777070063696
sS'seguelon'
p104
F11.961165048543689
sS'goumere'
p105
F25.438247011952193
sS'niambezaria'
p106
F61.758241758241759
sS'bonoua'
p107
F52.560000000000002
sS'gueyebly'
p108
F50.341296928327644
sS'rubino'
p109
F76.961038961038966
sS'akoboissue'
p110
F72.17647058823529
sS'marandallah'
p111
F16.876172607879926
sS'tiobly'
p112
F21.987522281639929
sS'odienne'
p113
F11.961165048543689
sS'botro'
p114
F140.19148936170214
sS'sangouine'
p115
F83.607214428857716
sS'attiegouakro'
p116
F67.191558441558442
sS'dieouzon'
p117
F81.019417475728162
sS'toumodi'
p118
F42.338129496402878
sS'dualla'
p119
F15.667259786476869
sS'guiglo'
p120
F21.987522281639929
sS'niakaramandougou'
p121
F20.254777070063696
sS'saioua'
p122
F78.969359331476326
sS'kolia'
p123
F23.432552248258393
sS'korhogo'
p124
F45.136000000000003
sS'bakoubli'
p125
F21.987522281639929
sS'kondrobo'
p126
F46.293706293706293
sS'zoukougbeu'
p127
F96.458715596330279
sS'zouan-hounien'
p128
F70.195652173913047
sS'ayame'
p129
F52.560000000000002
sS'sikensi'
p130
F423.953216374269
sS'nidrou'
p131
F83.607214428857716
sS'ouelle'
p132
F34.819944598337948
sS'etueboue'
p133
F52.560000000000002
sS'bongouanou'
p134
F58.850987432675048
sS'bouna'
p135
F9.1057289240801111
sS'arrah'
p136
F58.850987432675048
sS"m'batto"
p137
F58.850987432675048
sS'grand-morie'
p138
F76.961038961038966
sS'ayaou-sran'
p139
F46.01063829787234
sS'kpouebo'
p140
F42.338129496402878
sS"tie-n'diekro"
p141
F67.191558441558442
sS'anoumaba'
p142
F58.850987432675048
sS'assuefry'
p143
F45.516178736517716
sS'bocanda'
p144
F41.951219512195124
sS'sarhala'
p145
F16.876172607879926
sS'massala'
p146
F15.667259786476869
sS'ouaninou'
p147
F18.199541284403669
sS'aniassue'
p148
F59.903846153846153
sS'adiake'
p149
F52.560000000000002
sS'adzope'
p150
F65.984703632887189
sS'niable'
p151
F59.903846153846153
sS'diegonefla'
p152
F84.916666666666671
sS'issia'
p153
F78.969359331476326
sS'sirasso'
p154
F45.136000000000003
sS'biankouma'
p155
F29.212121212121211
sS'zikisso'
p156
F61.758241758241759
sS'lakota'
p157
F61.758241758241759
sS'kouto'
p158
F23.432552248258393
sS'tortiya'
p159
F20.254777070063696
sS'agboville'
p160
F76.961038961038966
sS'bonon'
p161
F59.899497487437188
sS'bonieredougou'
p162
F12.34746639089969
sS'tengrela'
p163
F36.545454545454547
sS'dame'
p164
F72.17647058823529
sS'bodokro'
p165
F46.293706293706293
sS'sifie'
p166
F15.667259786476869
sS'bettie'
p167
F59.903846153846153
sS'kouassi kouassikro'
p168
F41.951219512195124
sS'soubre'
p169
F54.389359129383315
sS'koonan'
p170
F18.199541284403669
sS'dabou'
p171
F423.953216374269
sS'zaranou'
p172
F59.903846153846153
sS'danane'
p173
F70.195652173913047
sS'abidjan'
p174
F423.953216374269
sS'debete'
p175
F36.545454545454547
sS'guezon'
p176
F50.341296928327644
sS'kongasso'
p177
F16.876172607879926
sS'songon'
p178
F423.953216374269
sS'ebilassokro'
p179
F59.903846153846153
sS'hire'
p180
F71.527777777777771
sS'sinematiali'
p181
F45.136000000000003
sS'djekanou'
p182
F42.338129496402878
sS'morondo'
p183
F15.667259786476869
sS'tabagne'
p184
F25.438247011952193
sS'seguela'
p185
F15.667259786476869
sS'worofla'
p186
F15.667259786476869
sS'dianra'
p187
F16.876172607879926
sS'nassian'
p188
F9.1057289240801111
sS'katiola'
p189
F20.254777070063696
sS'tiemelekro'
p190
F58.850987432675048
sS'gboguhe'
p191
F96.458715596330279
sS'touba'
p192
F18.199541284403669
sS'bingerville'
p193
F423.953216374269
sS'toumodi-sakassou'
p194
F46.01063829787234
sS'pehe'
p195
F21.987522281639929
sS'taoudi'
p196
F25.438247011952193
sS'kouassi-datekro'
p197
F45.516178736517716
sS'gadouan'
p198
F96.458715596330279
sS'seydougou'
p199
F11.961165048543689
sS'amelekia'
p200
F59.903846153846153
sS'okrouyo'
p201
F54.389359129383315
sS'becedi-brignan'
p202
F65.984703632887189
sS'ettrokro'
p203
F34.819944598337948
sS'dabakala'
p204
F12.34746639089969
sS'tiapoum'
p205
F52.560000000000002
sS'san-pedro'
p206
F35.449275362318843
sS'tai'
p207
F21.987522281639929
sS'gagnoa'
p208
F89.111111111111114
sS'brobo'
p209
F140.19148936170214
sS'mankono'
p210
F16.876172607879926
sS'bediala'
p211
F96.458715596330279
sS'aboisso'
p212
F52.560000000000002
sS'gueyo'
p213
F30.154142581888248
sS'koun-fao'
p214
F45.516178736517716
sS'buyo'
p215
F54.389359129383315
sS'satama-sokoura'
p216
F12.34746639089969
sS'bouake'
p217
F140.19148936170214
sS'bagohouo'
p218
F50.341296928327644
sS'facobly'
p219
F83.607214428857716
sS'zou'
p220
F81.019417475728162
sS'tankesse'
p221
F45.516178736517716
sS'yocoboue'
p222
F71.527777777777771
sS'guinteguela'
p223
F18.199541284403669
sS'divo'
p224
F71.527777777777771
sS'koro'
p225
F18.199541284403669
sS'jacqueville'
p226
F423.953216374269
sS'tehini'
p227
F9.1057289240801111
sS'meagui'
p228
F54.389359129383315
sS'duffrebo'
p229
F72.17647058823529
sS'prikro'
p230
F27.38095238095238
sS'sandegue'
p231
F25.438247011952193
sS'ferkessedougou'
p232
F14.180956678700362
sS'fresco'
p233
F71.527777777777771
sS'didievi'
p234
F67.191558441558442
sS'sassandra'
p235
F30.154142581888248
sS'kanakono'
p236
F36.545454545454547
sS'gbon'
p237
F23.432552248258393
sS'djibrosso'
p238
F15.667259786476869
sS'doropo'
p239
F9.1057289240801111
sS'tiassale'
p240
F57.240356083086056
sS'koffi-amonkro'
p241
F27.38095238095238
sS'tafire'
p242
F20.254777070063696
sS'mahapleu'
p243
F70.195652173913047
sS'guitry'
p244
F71.527777777777771
sS'kassere'
p245
F23.432552248258393
sS'ouangolodougou'
p246
F14.180956678700362
sS'duekoue'
p247
F50.341296928327644
sS'grand-zattry'
p248
F54.389359129383315
sS'diawala'
p249
F14.180956678700362
sS'grand-lahou'
p250
F33.596491228070178
sS'sorobango'
p251
F25.438247011952193
sS'seitifla'
p252
F40
sS'toulepleu'
p253
F21.987522281639929
sS'goulia'
p254
F11.961165048543689
sS'dimbokro'
p255
F41.951219512195124
sS'sinfra'
p256
F103.55029585798816
s.