(dp1
S'grand-bereby'
p2
I121
sS'kounahiri'
p3
I207
sS'foungbesso'
p4
I112
sS"m'bengue"
p5
I92
sS'bonguera'
p6
I180
sS'sago'
p7
I115
sS'beoumi'
p8
I29
sS'taabo'
p9
I70
sS'zuenoula'
p10
I28
sS'zeo'
p11
I81
sS'kong'
p12
I107
sS'alepe'
p13
I59
sS'grand-bassam'
p14
I198
sS'gbapleu'
p15
I158
sS'borotou'
p16
I241
sS'agou'
p17
I11
sS'kouibly'
p18
I73
sS'satama-sokoro'
p19
I35
sS'fronan'
p20
I46
sS'cechi'
p21
I20
sS'oress-krobou'
p22
I18
sS'tanguelan'
p23
I7
sS'affery'
p24
I12
sS'tienko'
p25
I128
sS'bouafle'
p26
I22
sS'yakasse-attobrou'
p27
I16
sS'bondoukou'
p28
I212
sS'dikodougou'
p29
I91
sS'bazre'
p30
I27
sS'anyama'
p31
I64
sS'yakasse-feyasse'
p32
I5
sS'sakassou'
p33
I50
sS'guiembe'
p34
I246
sS'niofoin'
p35
I90
sS'tieningboue'
p36
I209
sS'foumbolo'
p37
I38
sS'blolequin'
p38
I160
sS'nielle'
p39
I110
sS'transua'
p40
I226
sS'djebonoua'
p41
I44
sS'abengourou'
p42
I167
sS'guiberoua'
p43
I140
sS'ouragahio'
p44
I139
sS'boundiali'
p45
I101
sS'minignan'
p46
I238
sS'languibonou'
p47
I42
sS'kaniasso'
p48
I132
sS'daoukro'
p49
I174
sS'bianoua'
p50
I193
sS'bassawa'
p51
I34
sS'kononfla'
p52
I25
sS'tioroniaradougou'
p53
I88
sS'azaguie'
p54
I21
sS'yamoussoukro'
p55
I58
sS'iboguhe'
p56
I153
sS'kokumbo'
p57
I53
sS'assinie-mafia'
p58
I231
sS'semien'
p59
I71
sS'napieoledougou'
p60
I95
sS'akoupe'
p61
I13
sS'dikodougou2'
p62
I96
sS'bangolo'
p63
I82
sS'samatiguila'
p64
I131
sS'sipilou'
p65
I87
sS'koumbala'
p66
I105
sS'vavoua'
p67
I154
sS'gohitafla'
p68
I254
sS'oghlwapo'
p69
I62
sS'man'
p70
I75
sS'tieme'
p71
I134
sS'gnagbodougnoa'
p72
I137
sS'diabo'
p73
I41
sS'sapli'
p74
I216
sS'tabou'
p75
I119
sS'assikoi'
p76
I15
sS'kani'
p77
I205
sS'kouetinfla'
p78
I23
sS'daloa'
p79
I144
sS'booko'
p80
I114
sS'grabo'
p81
I120
sS'bako'
p82
I130
sS'totrodrou'
p83
I83
sS'ando-kekrenou'
p84
I30
sS'gbeleban'
p85
I239
sS'angoda'
p86
I55
sS'madinani'
p87
I133
sS'zaibo'
p88
I147
sS'logouale'
p89
I77
sS'agnibilekrou'
p90
I168
sS'tanda'
p91
I228
sS'boguedia'
p92
I152
sS'bin-houye'
p93
I80
sS'dioulatiedougou'
p94
I129
sS'oume'
p95
I143
sS'karakoro'
p96
I245
sS"m'bahiakro"
p97
I178
sS'dania'
p98
I156
sS'bayota'
p99
I141
sS'gbonne'
p100
I72
sS'tiebissou'
p101
I52
sS'maffere'
p102
I194
sS'timbe'
p103
I45
sS'seguelon'
p104
I135
sS'goumere'
p105
I213
sS'niambezaria'
p106
I188
sS'bonoua'
p107
I192
sS'gueyebly'
p108
I236
sS'rubino'
p109
I17
sS'akoboissue'
p110
I1
sS'marandallah'
p111
I230
sS'tiobly'
p112
I161
sS'odienne'
p113
I240
sS'botro'
p114
I43
sS'sangouine'
p115
I78
sS'attiegouakro'
p116
I56
sS'dieouzon'
p117
I86
sS'toumodi'
p118
I250
sS'dualla'
p119
I201
sS'guiglo'
p120
I237
sS'niakaramandougou'
p121
I252
sS'saioua'
p122
I151
sS'kolia'
p123
I100
sS'korhogo'
p124
I89
sS'bakoubli'
p125
I157
sS'kondrobo'
p126
I32
sS'zoukougbeu'
p127
I146
sS'zouan-hounien'
p128
I79
sS'ayame'
p129
I191
sS'sikensi'
p130
I67
sS'nidrou'
p131
I76
sS'ouelle'
p132
I232
sS'etueboue'
p133
I195
sS'bongouanou'
p134
I172
sS'bouna'
p135
I220
sS'arrah'
p136
I233
sS"m'batto"
p137
I171
sS'grand-morie'
p138
I19
sS'ayaou-sran'
p139
I51
sS'kpouebo'
p140
I251
sS"tie-n'diekro"
p141
I249
sS'anoumaba'
p142
I170
sS'assuefry'
p143
I227
sS'bocanda'
p144
I175
sS'sarhala'
p145
I208
sS'massala'
p146
I203
sS'ouaninou'
p147
I243
sS'aniassue'
p148
I4
sS'adiake'
p149
I197
sS'adzope'
p150
I10
sS'niable'
p151
I169
sS'diegonefla'
p152
I142
sS'issia'
p153
I150
sS'sirasso'
p154
I93
sS'biankouma'
p155
I248
sS'zikisso'
p156
I189
sS'lakota'
p157
I187
sS'kouto'
p158
I103
sS'tortiya'
p159
I47
sS'agboville'
p160
I255
sS'bonon'
p161
I26
sS'bonieredougou'
p162
I37
sS'tengrela'
p163
I97
sS'dame'
p164
I9
sS'bodokro'
p165
I31
sS'sifie'
p166
I202
sS'bettie'
p167
I235
sS'kouassi kouassikro'
p168
I181
sS'soubre'
p169
I117
sS'koonan'
p170
I244
sS'dabou'
p171
I66
sS'zaranou'
p172
I3
sS'danane'
p173
I84
sS'abidjan'
p174
I60
sS'debete'
p175
I98
sS'guezon'
p176
I166
sS'kongasso'
p177
I210
sS'songon'
p178
I63
sS'ebilassokro'
p179
I6
sS'hire'
p180
I186
sS'sinematiali'
p181
I94
sS'djekanou'
p182
I54
sS'morondo'
p183
I199
sS'tabagne'
p184
I214
sS'seguela'
p185
I200
sS'worofla'
p186
I204
sS'dianra'
p187
I211
sS'nassian'
p188
I222
sS'katiola'
p189
I253
sS'tiemelekro'
p190
I234
sS'gboguhe'
p191
I145
sS'touba'
p192
I242
sS'bingerville'
p193
I61
sS'toumodi-sakassou'
p194
I49
sS'pehe'
p195
I163
sS'taoudi'
p196
I215
sS'kouassi-datekro'
p197
I224
sS'gadouan'
p198
I149
sS'seydougou'
p199
I136
sS'amelekia'
p200
I2
sS'okrouyo'
p201
I118
sS'becedi-brignan'
p202
I14
sS'ettrokro'
p203
I176
sS'dabakala'
p204
I33
sS'tiapoum'
p205
I196
sS'san-pedro'
p206
I122
sS'tai'
p207
I159
sS'gagnoa'
p208
I138
sS'brobo'
p209
I40
sS'mankono'
p210
I229
sS'bediala'
p211
I148
sS'aboisso'
p212
I190
sS'gueyo'
p213
I125
sS'koun-fao'
p214
I223
sS'buyo'
p215
I124
sS'satama-sokoura'
p216
I36
sS'bouake'
p217
I39
sS'bagohouo'
p218
I164
sS'facobly'
p219
I74
sS'zou'
p220
I247
sS'tankesse'
p221
I225
sS'yocoboue'
p222
I184
sS'guinteguela'
p223
I111
sS'divo'
p224
I182
sS'koro'
p225
I113
sS'jacqueville'
p226
I65
sS'tehini'
p227
I221
sS'meagui'
p228
I123
sS'duffrebo'
p229
I8
sS'prikro'
p230
I179
sS'sandegue'
p231
I218
sS'ferkessedougou'
p232
I106
sS'fresco'
p233
I185
sS'didievi'
p234
I57
sS'sassandra'
p235
I116
sS'kanakono'
p236
I99
sS'gbon'
p237
I104
sS'djibrosso'
p238
I206
sS'doropo'
p239
I219
sS'tiassale'
p240
I69
sS'koffi-amonkro'
p241
I177
sS'tafire'
p242
I48
sS'mahapleu'
p243
I85
sS'guitry'
p244
I183
sS'kassere'
p245
I102
sS'ouangolodougou'
p246
I108
sS'duekoue'
p247
I165
sS'grand-zattry'
p248
I126
sS'diawala'
p249
I109
sS'grand-lahou'
p250
I68
sS'sorobango'
p251
I217
sS'seitifla'
p252
I155
sS'toulepleu'
p253
I162
sS'goulia'
p254
I127
sS'dimbokro'
p255
I173
sS'sinfra'
p256
I24
s.